; Function Attrs: mustprogress uwtable
define hidden noundef ptr @_ZN7datalog27lazy_table_filter_identical5forceEv(ptr noundef nonnull align 8 captures(none) dereferenceable(64) %0) unnamed_addr #3 align 2 personality ptr @__gxx_personality_v0 {
  %2 = alloca %"class.datalog::verbose_action", align 8
  %3 = getelementptr inbounds nuw i8, ptr %0, i64 56
  %4 = load ptr, ptr %3, align 8, !tbaa !56
  %5 = getelementptr inbounds nuw i8, ptr %4, i64 40
  %6 = load ptr, ptr %5, align 8, !tbaa !51
  %.not.i = icmp eq ptr %6, null
  br i1 %.not.i, label %7, label %_ZN7datalog14lazy_table_ref4evalEv.exit

7:                                                ; preds = %1
  %8 = load ptr, ptr %4, align 8, !tbaa !27
  %9 = load ptr, ptr %8, align 8
  %10 = tail call noundef ptr %9(ptr noundef nonnull align 8 dereferenceable(48) %4)
  %11 = load ptr, ptr %5, align 8, !tbaa !51
  %.not.i.i = icmp eq ptr %11, null
  %.not3.i.i = icmp eq ptr %10, %11
  %or.cond.i.i = or i1 %.not.i.i, %.not3.i.i
  br i1 %or.cond.i.i, label %_ZN7datalog10scoped_relINS_10table_baseEEaSEPS1_.exit.i, label %12

12:                                               ; preds = %7
  tail call void @_ZN7datalog16universal_deleteEPNS_10table_baseE(ptr noundef nonnull %11)
  br label %_ZN7datalog10scoped_relINS_10table_baseEEaSEPS1_.exit.i

_ZN7datalog10scoped_relINS_10table_baseEEaSEPS1_.exit.i: ; preds = %12, %7
  store ptr %10, ptr %5, align 8, !tbaa !51
  br label %_ZN7datalog14lazy_table_ref4evalEv.exit

_ZN7datalog14lazy_table_ref4evalEv.exit:          ; preds = %1, %_ZN7datalog10scoped_relINS_10table_baseEEaSEPS1_.exit.i
  %13 = phi ptr [ %10, %_ZN7datalog10scoped_relINS_10table_baseEEaSEPS1_.exit.i ], [ %6, %1 ]
  %14 = getelementptr inbounds nuw i8, ptr %0, i64 40
  %15 = load ptr, ptr %14, align 8, !tbaa !51
  %.not.i4 = icmp eq ptr %15, null
  %.not3.i = icmp eq ptr %13, %15
  %or.cond.i = or i1 %.not.i4, %.not3.i
  br i1 %or.cond.i, label %17, label %16

16:                                               ; preds = %_ZN7datalog14lazy_table_ref4evalEv.exit
  tail call void @_ZN7datalog16universal_deleteEPNS_10table_baseE(ptr noundef nonnull %15)
  br label %17

17:                                               ; preds = %16, %_ZN7datalog14lazy_table_ref4evalEv.exit
  store ptr %13, ptr %14, align 8, !tbaa !51
  %18 = load ptr, ptr %3, align 8, !tbaa !56
  %19 = getelementptr inbounds nuw i8, ptr %18, i64 40
  store ptr null, ptr %19, align 8, !tbaa !51
  %20 = getelementptr inbounds nuw i8, ptr %18, i64 32
  %21 = load i32, ptr %20, align 8, !tbaa !47
  %22 = add i32 %21, -1
  store i32 %22, ptr %20, align 8, !tbaa !47
  %23 = icmp eq i32 %22, 0
  br i1 %23, label %24, label %_ZN3refIN7datalog14lazy_table_refEEaSEPS1_.exit

24:                                               ; preds = %17
  %25 = load ptr, ptr %18, align 8, !tbaa !27
  %26 = getelementptr inbounds nuw i8, ptr %25, i64 8
  %27 = load ptr, ptr %26, align 8
  tail call void %27(ptr noundef nonnull align 8 dereferenceable(48) %18) #22
  tail call void @_ZN6memory10deallocateEPv(ptr noundef nonnull align 8 dereferenceable(48) %18)
  br label %_ZN3refIN7datalog14lazy_table_refEEaSEPS1_.exit

_ZN3refIN7datalog14lazy_table_refEEaSEPS1_.exit:  ; preds = %17, %24
  store ptr null, ptr %3, align 8, !tbaa !56
  call void @llvm.lifetime.start.p0(i64 16, ptr nonnull %2) #22
  call void @_ZN7datalog14verbose_actionC1EPKcj(ptr noundef nonnull align 8 dereferenceable(16) %2, ptr noundef nonnull @.str.9, i32 noundef 11)
  %28 = getelementptr inbounds nuw i8, ptr %0, i64 8
  %29 = load ptr, ptr %28, align 8, !tbaa !81
  %30 = getelementptr inbounds nuw i8, ptr %29, i64 24
  %31 = load ptr, ptr %30, align 8, !tbaa !65
  %32 = load ptr, ptr %14, align 8, !tbaa !51
  %33 = getelementptr inbounds nuw i8, ptr %0, i64 48
  %34 = load ptr, ptr %33, align 8, !tbaa !60
  %35 = icmp eq ptr %34, null
  br i1 %35, label %_ZNK6vectorIjLb0EjE4sizeEv.exit, label %36

36:                                               ; preds = %_ZN3refIN7datalog14lazy_table_refEEaSEPS1_.exit
  %37 = getelementptr inbounds i8, ptr %34, i64 -4
  %38 = load i32, ptr %37, align 4, !tbaa !42
  br label %_ZNK6vectorIjLb0EjE4sizeEv.exit

_ZNK6vectorIjLb0EjE4sizeEv.exit:                  ; preds = %_ZN3refIN7datalog14lazy_table_refEEaSEPS1_.exit, %36
  %.0.i = phi i32 [ %38, %36 ], [ 0, %_ZN3refIN7datalog14lazy_table_refEEaSEPS1_.exit ]
  %39 = invoke noundef ptr @_ZN7datalog16relation_manager22mk_filter_identical_fnERKNS_10table_baseEjPKj(ptr noundef nonnull align 8 dereferenceable(200) %31, ptr noundef nonnull align 8 dereferenceable(36) %32, i32 noundef %.0.i, ptr noundef %34)
          to label %40 unwind label %49

40:                                               ; preds = %_ZNK6vectorIjLb0EjE4sizeEv.exit
  %41 = load ptr, ptr %14, align 8, !tbaa !51
  %42 = load ptr, ptr %39, align 8, !tbaa !27
  %43 = getelementptr inbounds nuw i8, ptr %42, i64 16
  %44 = load ptr, ptr %43, align 8
  invoke void %44(ptr noundef nonnull align 8 dereferenceable(8) %39, ptr noundef nonnull align 8 dereferenceable(36) %41)
          to label %45 unwind label %49

45:                                               ; preds = %40
  %46 = load ptr, ptr %39, align 8, !tbaa !27
  %47 = load ptr, ptr %46, align 8
  call void %47(ptr noundef nonnull align 8 dereferenceable(8) %39) #22
  invoke void @_ZN6memory10deallocateEPv(ptr noundef nonnull %39)
          to label %_Z7deallocIN7datalog17tr_infrastructureINS0_12table_traitsEE10mutator_fnEEvPT_.exit unwind label %49

_Z7deallocIN7datalog17tr_infrastructureINS0_12table_traitsEE10mutator_fnEEvPT_.exit: ; preds = %45
  %48 = load ptr, ptr %14, align 8, !tbaa !51
  call void @_ZN7datalog14verbose_actionD1Ev(ptr noundef nonnull align 8 dereferenceable(16) %2) #22
  call void @llvm.lifetime.end.p0(i64 16, ptr nonnull %2) #22
  ret ptr %48

49:                                               ; preds = %45, %40, %_ZNK6vectorIjLb0EjE4sizeEv.exit
  %50 = landingpad { ptr, i32 }
          cleanup
  call void @_ZN7datalog14verbose_actionD1Ev(ptr noundef nonnull align 8 dereferenceable(16) %2) #22
  call void @llvm.lifetime.end.p0(i64 16, ptr nonnull %2) #22
  resume { ptr, i32 } %50
}